; ModuleID = '50/2114.c'
source_filename = "50/2114.c"
target datalayout = "e-m:e-p270:32:32-p271:32:32-p272:64:64-i64:64-f80:128-n8:16:32:64-S128"
target triple = "x86_64-pc-linux-gnu"

@.str = private unnamed_addr constant [3 x i8] c"%d\00", align 1
@.str.1 = private unnamed_addr constant [4 x i8] c"%d\0A\00", align 1

; Function Attrs: noinline nounwind uwtable
define dso_local i32 @main() #0 {
  %1 = alloca i32, align 4
  %2 = alloca i32, align 4
  %3 = alloca i32, align 4
  %4 = alloca i32, align 4
  store i32 0, i32* %1, align 4
  %5 = call i32 (i8*, ...) @__isoc99_scanf(i8* getelementptr inbounds ([3 x i8], [3 x i8]* @.str, i64 0, i64 0), i32* %2)
  store i32 0, i32* %4, align 4
  br label %6

6:                                                ; preds = %23, %0
  %7 = load i32, i32* %4, align 4
  %8 = icmp slt i32 %7, 12
  br i1 %8, label %9, label %26

9:                                                ; preds = %6
  %10 = load i32, i32* %4, align 4
  %11 = add nsw i32 %10, 1
  %12 = call i32 @days_within_a_year(i32 %11, i32 13)
  %13 = load i32, i32* %2, align 4
  %14 = add nsw i32 %12, %13
  %15 = srem i32 %14, 7
  store i32 %15, i32* %3, align 4
  %16 = load i32, i32* %3, align 4
  %17 = icmp eq i32 %16, 5
  br i1 %17, label %18, label %22

18:                                               ; preds = %9
  %19 = load i32, i32* %4, align 4
  %20 = add nsw i32 %19, 1
  %21 = call i32 (i8*, ...) @printf(i8* getelementptr inbounds ([4 x i8], [4 x i8]* @.str.1, i64 0, i64 0), i32 %20)
  br label %22

22:                                               ; preds = %18, %9
  br label %23

23:                                               ; preds = %22
  %24 = load i32, i32* %4, align 4
  %25 = add nsw i32 %24, 1
  store i32 %25, i32* %4, align 4
  br label %6

26:                                               ; preds = %6
  ret i32 0
}

declare dso_local i32 @__isoc99_scanf(i8*, ...) #1

; Function Attrs: noinline nounwind uwtable
define dso_local i32 @days_within_a_year(i32 %0, i32 %1) #0 {
  %3 = alloca i32, align 4
  %4 = alloca i32, align 4
  %5 = alloca i32, align 4
  %6 = alloca i32, align 4
  store i32 %0, i32* %3, align 4
  store i32 %1, i32* %4, align 4
  %7 = load i32, i32* %3, align 4
  switch i32 %7, label %20 [
    i32 1, label %8
    i32 2, label %9
    i32 3, label %10
    i32 4, label %11
    i32 5, label %12
    i32 6, label %13
    i32 7, label %14
    i32 8, label %15
    i32 9, label %16
    i32 10, label %17
    i32 11, label %18
    i32 12, label %19
  ]

8:                                                ; preds = %2
  store i32 0, i32* %5, align 4
  br label %20

9:                                                ; preds = %2
  store i32 31, i32* %5, align 4
  br label %20

10:                                               ; preds = %2
  store i32 59, i32* %5, align 4
  br label %20

11:                                               ; preds = %2
  store i32 90, i32* %5, align 4
  br label %20

12:                                               ; preds = %2
  store i32 120, i32* %5, align 4
  br label %20

13:                                               ; preds = %2
  store i32 151, i32* %5, align 4
  br label %20

14:                                               ; preds = %2
  store i32 181, i32* %5, align 4
  br label %20

15:                                               ; preds = %2
  store i32 212, i32* %5, align 4
  br label %20

16:                                               ; preds = %2
  store i32 243, i32* %5, align 4
  br label %20

17:                                               ; preds = %2
  store i32 273, i32* %5, align 4
  br label %20

18:                                               ; preds = %2
  store i32 304, i32* %5, align 4
  br label %20

19:                                               ; preds = %2
  store i32 334, i32* %5, align 4
  br label %20

20:                                               ; preds = %2, %19, %18, %17, %16, %15, %14, %13, %12, %11, %10, %9, %8
  %21 = load i32, i32* %5, align 4
  %22 = load i32, i32* %4, align 4
  %23 = add nsw i32 %21, %22
  %24 = sub nsw i32 %23, 1
  store i32 %24, i32* %6, align 4
  %25 = load i32, i32* %6, align 4
  ret i32 %25
}

declare dso_local i32 @printf(i8*, ...) #1


!llvm.module.flags = !{!0}
!llvm.ident = !{!1}

!0 = !{i32 1, !"wchar_size", i32 4}
!1 = !{!"clang version 10.0.0-4ubuntu1 "}
